target datalayout = "e-m:e-p270:32:32-p271:32:32-p272:64:64-i64:64-i128:128-f80:128-n8:16:32:64-S128"
target triple = "x86_64-pc-linux-gnu"

@hf_btad_alt_beacon_code = internal global i32 0, align 4
@hf_btad_alt_beacon_id = internal global i32 0, align 4
@hf_btad_alt_beacon_reference_rssi = internal global i32 0, align 4
@hf_btad_alt_beacon_manufacturer_data = internal global i32 0, align 4
@ett_btad_alt_beacon = internal global i32 0, align 4
@proto_btad_alt_beacon = internal global i32 0, align 4

; Function Attrs: nounwind uwtable
define internal i32 @dissect_btad_alt_beacon(ptr noundef %0, ptr noundef %1, ptr noundef %2, ptr noundef %3) #1 {
  %5 = alloca ptr, align 8
  %6 = alloca ptr, align 8
  %7 = alloca ptr, align 8
  %8 = alloca ptr, align 8
  %9 = alloca ptr, align 8
  %10 = alloca ptr, align 8
  %11 = alloca i32, align 4
  store ptr %0, ptr %5, align 8
  store ptr %1, ptr %6, align 8
  store ptr %2, ptr %7, align 8
  store ptr %3, ptr %8, align 8
  store i32 0, ptr %11, align 4
  %12 = load ptr, ptr %7, align 8
  %13 = load i32, ptr @proto_btad_alt_beacon, align 4
  %14 = load ptr, ptr %5, align 8
  %15 = load i32, ptr %11, align 4
  %16 = load ptr, ptr %5, align 8
  %17 = call i32 @tvb_captured_length(ptr noundef %16)
  %18 = call ptr @proto_tree_add_item(ptr noundef %12, i32 noundef %13, ptr noundef %14, i32 noundef %15, i32 noundef %17, i32 noundef 0)
  store ptr %18, ptr %10, align 8
  %19 = load ptr, ptr %10, align 8
  %20 = load i32, ptr @ett_btad_alt_beacon, align 4
  %21 = call ptr @proto_item_add_subtree(ptr noundef %19, i32 noundef %20)
  store ptr %21, ptr %9, align 8
  %22 = load ptr, ptr %9, align 8
  %23 = load i32, ptr @hf_btad_alt_beacon_code, align 4
  %24 = load ptr, ptr %5, align 8
  %25 = load i32, ptr %11, align 4
  %26 = call ptr @proto_tree_add_item(ptr noundef %22, i32 noundef %23, ptr noundef %24, i32 noundef %25, i32 noundef 2, i32 noundef 0)
  %27 = load i32, ptr %11, align 4
  %28 = add i32 %27, 2
  store i32 %28, ptr %11, align 4
  %29 = load ptr, ptr %9, align 8
  %30 = load i32, ptr @hf_btad_alt_beacon_id, align 4
  %31 = load ptr, ptr %5, align 8
  %32 = load i32, ptr %11, align 4
  %33 = call ptr @proto_tree_add_item(ptr noundef %29, i32 noundef %30, ptr noundef %31, i32 noundef %32, i32 noundef 20, i32 noundef 0)
  %34 = load i32, ptr %11, align 4
  %35 = add i32 %34, 20
  store i32 %35, ptr %11, align 4
  %36 = load ptr, ptr %9, align 8
  %37 = load i32, ptr @hf_btad_alt_beacon_reference_rssi, align 4
  %38 = load ptr, ptr %5, align 8
  %39 = load i32, ptr %11, align 4
  %40 = call ptr @proto_tree_add_item(ptr noundef %36, i32 noundef %37, ptr noundef %38, i32 noundef %39, i32 noundef 1, i32 noundef 0)
  %41 = load i32, ptr %11, align 4
  %42 = add i32 %41, 1
  store i32 %42, ptr %11, align 4
  %43 = load ptr, ptr %9, align 8
  %44 = load i32, ptr @hf_btad_alt_beacon_manufacturer_data, align 4
  %45 = load ptr, ptr %5, align 8
  %46 = load i32, ptr %11, align 4
  %47 = call ptr @proto_tree_add_item(ptr noundef %43, i32 noundef %44, ptr noundef %45, i32 noundef %46, i32 noundef 1, i32 noundef 0)
  %48 = load i32, ptr %11, align 4
  %49 = add i32 %48, 1
  store i32 %49, ptr %11, align 4
  %50 = load i32, ptr %11, align 4
  ret i32 %50
}