; Function Attrs: nounwind uwtable
define internal noundef i32 @dissect_btad_alt_beacon(ptr noundef %0, ptr readnone captures(none) %1, ptr noundef %2, ptr readnone captures(none) %3) #1 {
  %5 = load i32, ptr @proto_btad_alt_beacon, align 4
  %6 = tail call i32 @tvb_captured_length(ptr noundef %0) #9
  %7 = tail call ptr @proto_tree_add_item(ptr noundef %2, i32 noundef %5, ptr noundef %0, i32 noundef 0, i32 noundef %6, i32 noundef 0) #9
  %8 = load i32, ptr @ett_btad_alt_beacon, align 4
  %9 = tail call ptr @proto_item_add_subtree(ptr noundef %7, i32 noundef %8) #9
  %10 = load i32, ptr @hf_btad_alt_beacon_code, align 4
  %11 = tail call ptr @proto_tree_add_item(ptr noundef %9, i32 noundef %10, ptr noundef %0, i32 noundef 0, i32 noundef 2, i32 noundef 0) #9
  %12 = load i32, ptr @hf_btad_alt_beacon_id, align 4
  %13 = tail call ptr @proto_tree_add_item(ptr noundef %9, i32 noundef %12, ptr noundef %0, i32 noundef 2, i32 noundef 20, i32 noundef 0) #9
  %14 = load i32, ptr @hf_btad_alt_beacon_reference_rssi, align 4
  %15 = tail call ptr @proto_tree_add_item(ptr noundef %9, i32 noundef %14, ptr noundef %0, i32 noundef 22, i32 noundef 1, i32 noundef 0) #9
  %16 = load i32, ptr @hf_btad_alt_beacon_manufacturer_data, align 4
  %17 = tail call ptr @proto_tree_add_item(ptr noundef %9, i32 noundef %16, ptr noundef %0, i32 noundef 23, i32 noundef 1, i32 noundef 0) #9
  ret i32 24
}